; Function Attrs: null_pointer_is_valid sspstrong uwtable
define noalias ptr @port_with_resolution_to_str(ptr noundef %0, i32 noundef %1, i32 noundef %2) local_unnamed_addr #3 {
  %4 = alloca ptr, align 8
  %5 = load i8, ptr getelementptr inbounds nuw (i8, ptr @gbl_resolv_flags, i64 2), align 1, !range !16, !noundef !17
  %6 = trunc nuw i8 %5 to i1
  %7 = icmp ne i32 %1, 0
  %or.cond.not = and i1 %7, %6
  br i1 %or.cond.not, label %10, label %8

8:                                                ; preds = %3
  %9 = tail call noalias ptr (ptr, ptr, ...) @wmem_strdup_printf(ptr noundef %0, ptr noundef nonnull @.str, i32 noundef %2)
  br label %33

10:                                               ; preds = %3
  call void @llvm.lifetime.start.p0(i64 8, ptr nonnull %4) #24
  store ptr null, ptr %4, align 8
  %11 = call fastcc ptr @_serv_name_lookup(i32 noundef %1, i32 noundef %2, ptr noundef nonnull %4)
  %.not.i = icmp eq ptr %11, null
  br i1 %.not.i, label %12, label %serv_name_lookup.exit

12:                                               ; preds = %10
  %13 = load ptr, ptr %4, align 8
  %14 = icmp eq ptr %13, null
  br i1 %14, label %15, label %22

15:                                               ; preds = %12
  %16 = load ptr, ptr @addr_resolv_scope, align 8
  %17 = call noalias dereferenceable_or_null(40) ptr @wmem_alloc0(ptr noundef %16, i64 noundef 40) #26
  store ptr %17, ptr %4, align 8
  %18 = load ptr, ptr @serv_port_hashtable, align 8
  %19 = zext i32 %2 to i64
  %20 = inttoptr i64 %19 to ptr
  %21 = call ptr @wmem_map_insert(ptr noundef %18, ptr noundef %20, ptr noundef %17)
  %.pre.i = load ptr, ptr %4, align 8
  br label %22

22:                                               ; preds = %15, %12
  %23 = phi ptr [ %.pre.i, %15 ], [ %13, %12 ]
  %24 = getelementptr inbounds nuw i8, ptr %23, i64 32
  %25 = load ptr, ptr %24, align 8
  %26 = icmp eq ptr %25, null
  br i1 %26, label %27, label %serv_name_lookup.exit

27:                                               ; preds = %22
  %28 = load ptr, ptr @addr_resolv_scope, align 8
  %29 = call noalias ptr (ptr, ptr, ...) @wmem_strdup_printf(ptr noundef %28, ptr noundef nonnull @.str, i32 noundef %2)
  %30 = load ptr, ptr %4, align 8
  %31 = getelementptr inbounds nuw i8, ptr %30, i64 32
  store ptr %29, ptr %31, align 8
  br label %serv_name_lookup.exit

serv_name_lookup.exit:                            ; preds = %10, %22, %27
  %.0.i = phi ptr [ %11, %10 ], [ %29, %27 ], [ %25, %22 ]
  call void @llvm.lifetime.end.p0(i64 8, ptr nonnull %4) #24
  %32 = call noalias ptr (ptr, ptr, ...) @wmem_strdup_printf(ptr noundef %0, ptr noundef nonnull @.str.3, ptr noundef %.0.i, i32 noundef %2)
  br label %33

33:                                               ; preds = %serv_name_lookup.exit, %8
  %.0 = phi ptr [ %9, %8 ], [ %32, %serv_name_lookup.exit ]
  ret ptr %.0
}